target datalayout = "e-m:e-p270:32:32-p271:32:32-p272:64:64-i64:64-i128:128-f80:128-n8:16:32:64-S128"
target triple = "x86_64-pc-linux-gnu"

%"class.icu_77::UnicodeString" = type { %"class.icu_77::Replaceable", %"union.icu_77::UnicodeString::StackBufferOrFields" }
%"class.icu_77::Replaceable" = type { %"class.icu_77::UObject" }
%"class.icu_77::UObject" = type { ptr }
%"union.icu_77::UnicodeString::StackBufferOrFields" = type { %struct.anon.0, [32 x i8] }
%struct.anon.0 = type { i16, i32, i32, ptr }

; Function Attrs: inlinehint mustprogress nounwind uwtable
define linkonce_odr noundef i32 @_ZNK6icu_7713UnicodeString14getShortLengthEv(ptr noundef nonnull align 8 dereferenceable(64) %0) #2 comdat align 2 {
  %2 = alloca ptr, align 8
  store ptr %0, ptr %2, align 8, !tbaa !23
  %3 = load ptr, ptr %2, align 8
  %4 = getelementptr inbounds nuw %"class.icu_77::UnicodeString", ptr %3, i32 0, i32 1
  %5 = getelementptr inbounds nuw %struct.anon.0, ptr %4, i32 0, i32 0
  %6 = load i16, ptr %5, align 8, !tbaa !31
  %7 = sext i16 %6 to i32
  %8 = ashr i32 %7, 5
  ret i32 %8
}

; Function Attrs: inlinehint mustprogress nounwind uwtable
define linkonce_odr noundef signext i8 @_ZNK6icu_7713UnicodeString14hasShortLengthEv(ptr noundef nonnull align 8 dereferenceable(64) %0) #2 comdat align 2 {
  %2 = alloca ptr, align 8
  store ptr %0, ptr %2, align 8, !tbaa !23
  %3 = load ptr, ptr %2, align 8
  %4 = getelementptr inbounds nuw %"class.icu_77::UnicodeString", ptr %3, i32 0, i32 1
  %5 = getelementptr inbounds nuw %struct.anon.0, ptr %4, i32 0, i32 0
  %6 = load i16, ptr %5, align 8, !tbaa !31
  %7 = sext i16 %6 to i32
  %8 = icmp sge i32 %7, 0
  %9 = zext i1 %8 to i8
  ret i8 %9
}

; Function Attrs: inlinehint mustprogress uwtable
define linkonce_odr noundef i32 @_ZNK6icu_7711Replaceable8char32AtEi(ptr noundef nonnull align 8 dereferenceable(8) %0, i32 noundef %1) #3 comdat align 2 {
  %3 = alloca ptr, align 8
  %4 = alloca i32, align 4
  store ptr %0, ptr %3, align 8, !tbaa !34
  store i32 %1, ptr %4, align 4, !tbaa !14
  %5 = load ptr, ptr %3, align 8
  %6 = load i32, ptr %4, align 4, !tbaa !14
  %7 = load ptr, ptr %5, align 8, !tbaa !37
  %8 = getelementptr inbounds ptr, ptr %7, i64 10
  %9 = load ptr, ptr %8, align 8
  %10 = call noundef i32 %9(ptr noundef nonnull align 8 dereferenceable(8) %5, i32 noundef %6)
  ret i32 %10
}

; Function Attrs: inlinehint mustprogress uwtable
define linkonce_odr noundef i32 @_ZNK6icu_7713UnicodeString6lengthEv(ptr noundef nonnull align 8 dereferenceable(64) %0) #3 comdat align 2 {
  %2 = alloca ptr, align 8
  store ptr %0, ptr %2, align 8, !tbaa !23
  %3 = load ptr, ptr %2, align 8
  %4 = call noundef signext i8 @_ZNK6icu_7713UnicodeString14hasShortLengthEv(ptr noundef nonnull align 8 dereferenceable(64) %3)
  %5 = icmp ne i8 %4, 0
  br i1 %5, label %6, label %8

6:                                                ; preds = %1
  %7 = call noundef i32 @_ZNK6icu_7713UnicodeString14getShortLengthEv(ptr noundef nonnull align 8 dereferenceable(64) %3)
  br label %12

8:                                                ; preds = %1
  %9 = getelementptr inbounds nuw %"class.icu_77::UnicodeString", ptr %3, i32 0, i32 1
  %10 = getelementptr inbounds nuw %struct.anon.0, ptr %9, i32 0, i32 1
  %11 = load i32, ptr %10, align 4, !tbaa !31
  br label %12

12:                                               ; preds = %8, %6
  %13 = phi i32 [ %7, %6 ], [ %11, %8 ]
  ret i32 %13
}

; Function Attrs: mustprogress uwtable
define noundef i32 @_ZN6icu_7711ICU_Utility12parsePatternERKNS_13UnicodeStringERKNS_11ReplaceableEii(ptr noundef nonnull align 8 dereferenceable(64) %0, ptr noundef nonnull align 8 dereferenceable(8) %1, i32 noundef %2, i32 noundef %3) #1 align 2 {
  %5 = alloca i32, align 4
  %6 = alloca ptr, align 8
  %7 = alloca ptr, align 8
  %8 = alloca i32, align 4
  %9 = alloca i32, align 4
  %10 = alloca i32, align 4
  %11 = alloca i32, align 4
  %12 = alloca i32, align 4
  %13 = alloca i32, align 4
  store ptr %0, ptr %6, align 8, !tbaa !23
  store ptr %1, ptr %7, align 8, !tbaa !34
  store i32 %2, ptr %8, align 4, !tbaa !14
  store i32 %3, ptr %9, align 4, !tbaa !14
  call void @llvm.lifetime.start.p0(i64 4, ptr %10) #10
  store i32 0, ptr %10, align 4, !tbaa !14
  %14 = load i32, ptr %10, align 4, !tbaa !14
  %15 = load ptr, ptr %6, align 8, !tbaa !23
  %16 = call noundef i32 @_ZNK6icu_7713UnicodeString6lengthEv(ptr noundef nonnull align 8 dereferenceable(64) %15)
  %17 = icmp eq i32 %14, %16
  br i1 %17, label %18, label %20

18:                                               ; preds = %4
  %19 = load i32, ptr %8, align 4, !tbaa !14
  store i32 %19, ptr %5, align 4
  store i32 1, ptr %11, align 4
  br label %87

20:                                               ; preds = %4
  call void @llvm.lifetime.start.p0(i64 4, ptr %12) #10
  %21 = load ptr, ptr %6, align 8, !tbaa !23
  %22 = load i32, ptr %10, align 4, !tbaa !14
  %23 = call noundef i32 @_ZNK6icu_7713UnicodeString8char32AtEi(ptr noundef nonnull align 8 dereferenceable(64) %21, i32 noundef %22)
  store i32 %23, ptr %12, align 4, !tbaa !14
  br label %24

24:                                               ; preds = %84, %82, %20
  %25 = load i32, ptr %8, align 4, !tbaa !14
  %26 = load i32, ptr %9, align 4, !tbaa !14
  %27 = icmp slt i32 %25, %26
  br i1 %27, label %28, label %85

28:                                               ; preds = %24
  call void @llvm.lifetime.start.p0(i64 4, ptr %13) #10
  %29 = load ptr, ptr %7, align 8, !tbaa !34
  %30 = load i32, ptr %8, align 4, !tbaa !14
  %31 = call noundef i32 @_ZNK6icu_7711Replaceable8char32AtEi(ptr noundef nonnull align 8 dereferenceable(8) %29, i32 noundef %30)
  store i32 %31, ptr %13, align 4, !tbaa !14
  %32 = load i32, ptr %12, align 4, !tbaa !14
  %33 = icmp eq i32 %32, 126
  br i1 %33, label %34, label %54

34:                                               ; preds = %28
  %35 = load i32, ptr %13, align 4, !tbaa !14
  %36 = call noundef signext i8 @_ZN6icu_7712PatternProps12isWhiteSpaceEi(i32 noundef %35)
  %37 = icmp ne i8 %36, 0
  br i1 %37, label %38, label %44

38:                                               ; preds = %34
  %39 = load i32, ptr %13, align 4, !tbaa !14
  %40 = icmp ule i32 %39, 65535
  %41 = select i1 %40, i32 1, i32 2
  %42 = load i32, ptr %8, align 4, !tbaa !14
  %43 = add nsw i32 %42, %41
  store i32 %43, ptr %8, align 4, !tbaa !14
  store i32 2, ptr %11, align 4
  br label %82, !llvm.loop !36

44:                                               ; preds = %34
  %45 = load i32, ptr %10, align 4, !tbaa !14
  %46 = add nsw i32 %45, 1
  store i32 %46, ptr %10, align 4, !tbaa !14
  %47 = load ptr, ptr %6, align 8, !tbaa !23
  %48 = call noundef i32 @_ZNK6icu_7713UnicodeString6lengthEv(ptr noundef nonnull align 8 dereferenceable(64) %47)
  %49 = icmp eq i32 %46, %48
  br i1 %49, label %50, label %52

50:                                               ; preds = %44
  %51 = load i32, ptr %8, align 4, !tbaa !14
  store i32 %51, ptr %5, align 4
  store i32 1, ptr %11, align 4
  br label %82

52:                                               ; preds = %44
  br label %53

53:                                               ; preds = %52
  br label %78

54:                                               ; preds = %28
  %55 = load i32, ptr %13, align 4, !tbaa !14
  %56 = load i32, ptr %12, align 4, !tbaa !14
  %57 = icmp eq i32 %55, %56
  br i1 %57, label %58, label %76

58:                                               ; preds = %54
  %59 = load i32, ptr %13, align 4, !tbaa !14
  %60 = icmp ule i32 %59, 65535
  %61 = select i1 %60, i32 1, i32 2
  %62 = load i32, ptr %8, align 4, !tbaa !14
  %63 = add nsw i32 %62, %61
  store i32 %63, ptr %8, align 4, !tbaa !14
  %64 = load i32, ptr %12, align 4, !tbaa !14
  %65 = icmp ule i32 %64, 65535
  %66 = select i1 %65, i32 1, i32 2
  %67 = load i32, ptr %10, align 4, !tbaa !14
  %68 = add nsw i32 %67, %66
  store i32 %68, ptr %10, align 4, !tbaa !14
  %69 = load i32, ptr %10, align 4, !tbaa !14
  %70 = load ptr, ptr %6, align 8, !tbaa !23
  %71 = call noundef i32 @_ZNK6icu_7713UnicodeString6lengthEv(ptr noundef nonnull align 8 dereferenceable(64) %70)
  %72 = icmp eq i32 %69, %71
  br i1 %72, label %73, label %75

73:                                               ; preds = %58
  %74 = load i32, ptr %8, align 4, !tbaa !14
  store i32 %74, ptr %5, align 4
  store i32 1, ptr %11, align 4
  br label %82

75:                                               ; preds = %58
  br label %77

76:                                               ; preds = %54
  store i32 -1, ptr %5, align 4
  store i32 1, ptr %11, align 4
  br label %82

77:                                               ; preds = %75
  br label %78

78:                                               ; preds = %77, %53
  %79 = load ptr, ptr %6, align 8, !tbaa !23
  %80 = load i32, ptr %10, align 4, !tbaa !14
  %81 = call noundef i32 @_ZNK6icu_7713UnicodeString8char32AtEi(ptr noundef nonnull align 8 dereferenceable(64) %79, i32 noundef %80)
  store i32 %81, ptr %12, align 4, !tbaa !14
  store i32 0, ptr %11, align 4
  br label %82

82:                                               ; preds = %78, %76, %73, %50, %38
  call void @llvm.lifetime.end.p0(i64 4, ptr %13) #10
  %83 = load i32, ptr %11, align 4
  switch i32 %83, label %86 [
    i32 0, label %84
    i32 2, label %24
  ]

84:                                               ; preds = %82
  br label %24, !llvm.loop !36

85:                                               ; preds = %24
  store i32 -1, ptr %5, align 4
  store i32 1, ptr %11, align 4
  br label %86

86:                                               ; preds = %85, %82
  call void @llvm.lifetime.end.p0(i64 4, ptr %12) #10
  br label %87

87:                                               ; preds = %86, %18
  call void @llvm.lifetime.end.p0(i64 4, ptr %10) #10
  %88 = load i32, ptr %5, align 4
  ret i32 %88
}