; Function Attrs: mustprogress uwtable
define noundef i32 @_ZN6icu_7711ICU_Utility12parsePatternERKNS_13UnicodeStringERKNS_11ReplaceableEii(ptr noundef nonnull align 8 dereferenceable(64) %0, ptr noundef nonnull align 8 dereferenceable(8) %1, i32 noundef %2, i32 noundef %3) local_unnamed_addr #1 align 2 {
  %5 = getelementptr inbounds nuw i8, ptr %0, i64 8
  %6 = load i16, ptr %5, align 8, !tbaa !21
  %7 = icmp slt i16 %6, 0
  %8 = ashr i16 %6, 5
  %9 = sext i16 %8 to i32
  %10 = getelementptr inbounds nuw i8, ptr %0, i64 12
  %11 = load i32, ptr %10, align 4
  %12 = select i1 %7, i32 %11, i32 %9
  %13 = icmp eq i32 %12, 0
  br i1 %13, label %.thread, label %14

14:                                               ; preds = %4
  %15 = tail call noundef i32 @_ZNK6icu_7713UnicodeString8char32AtEi(ptr noundef nonnull align 8 dereferenceable(64) %0, i32 noundef 0)
  %16 = icmp slt i32 %2, %3
  br i1 %16, label %.lr.ph, label %.thread

.lr.ph:                                           ; preds = %14, %53
  %.02849 = phi i32 [ %.129, %53 ], [ %15, %14 ]
  %.03148 = phi i32 [ %.132, %53 ], [ 0, %14 ]
  %.03447 = phi i32 [ %.135, %53 ], [ %2, %14 ]
  %17 = load ptr, ptr %1, align 8, !tbaa !22
  %18 = getelementptr inbounds nuw i8, ptr %17, i64 80
  %19 = load ptr, ptr %18, align 8
  %20 = tail call noundef i32 %19(ptr noundef nonnull align 8 dereferenceable(8) %1, i32 noundef %.03447)
  %21 = icmp eq i32 %.02849, 126
  br i1 %21, label %22, label %37

22:                                               ; preds = %.lr.ph
  %23 = tail call noundef signext i8 @_ZN6icu_7712PatternProps12isWhiteSpaceEi(i32 noundef %20)
  %.not = icmp eq i8 %23, 0
  br i1 %.not, label %28, label %24

24:                                               ; preds = %22
  %25 = icmp ult i32 %20, 65536
  %26 = select i1 %25, i32 1, i32 2
  %27 = add nsw i32 %26, %.03447
  br label %53, !llvm.loop !24

28:                                               ; preds = %22
  %29 = add nsw i32 %.03148, 1
  %30 = load i16, ptr %5, align 8, !tbaa !21
  %31 = icmp slt i16 %30, 0
  %32 = ashr i16 %30, 5
  %33 = sext i16 %32 to i32
  %34 = load i32, ptr %10, align 4
  %35 = select i1 %31, i32 %34, i32 %33
  %36 = icmp eq i32 %29, %35
  br i1 %36, label %.thread, label %51

37:                                               ; preds = %.lr.ph
  %38 = icmp eq i32 %20, %.02849
  br i1 %38, label %39, label %.thread

39:                                               ; preds = %37
  %40 = icmp ult i32 %.02849, 65536
  %41 = select i1 %40, i32 1, i32 2
  %42 = add nsw i32 %41, %.03447
  %43 = add nsw i32 %41, %.03148
  %44 = load i16, ptr %5, align 8, !tbaa !21
  %45 = icmp slt i16 %44, 0
  %46 = ashr i16 %44, 5
  %47 = sext i16 %46 to i32
  %48 = load i32, ptr %10, align 4
  %49 = select i1 %45, i32 %48, i32 %47
  %50 = icmp eq i32 %43, %49
  br i1 %50, label %.thread, label %51

51:                                               ; preds = %39, %28
  %.236 = phi i32 [ %.03447, %28 ], [ %42, %39 ]
  %.233 = phi i32 [ %29, %28 ], [ %43, %39 ]
  %52 = tail call noundef i32 @_ZNK6icu_7713UnicodeString8char32AtEi(ptr noundef nonnull align 8 dereferenceable(64) %0, i32 noundef %.233)
  br label %53

53:                                               ; preds = %51, %24
  %.135 = phi i32 [ %27, %24 ], [ %.236, %51 ]
  %.132 = phi i32 [ %.03148, %24 ], [ %.233, %51 ]
  %.129 = phi i32 [ 126, %24 ], [ %52, %51 ]
  %54 = icmp slt i32 %.135, %3
  br i1 %54, label %.lr.ph, label %.thread

.thread:                                          ; preds = %53, %28, %39, %37, %14, %4
  %.0 = phi i32 [ %2, %4 ], [ -1, %14 ], [ -1, %53 ], [ %.03447, %28 ], [ %42, %39 ], [ -1, %37 ]
  ret i32 %.0
}